ARM GAS  C:\Users\27154\AppData\Local\Temp\cc1anLre.s 			page 1


   1              		.cpu cortex-m3
   2              		.eabi_attribute 20, 1
   3              		.eabi_attribute 21, 1
   4              		.eabi_attribute 23, 3
   5              		.eabi_attribute 24, 1
   6              		.eabi_attribute 25, 1
   7              		.eabi_attribute 26, 1
   8              		.eabi_attribute 30, 1
   9              		.eabi_attribute 34, 1
  10              		.eabi_attribute 18, 4
  11              		.file	"gpio.c"
  12              		.text
  13              	.Ltext0:
  14              		.cfi_sections	.debug_frame
  15              		.section	.text.MX_GPIO_Init,"ax",%progbits
  16              		.align	1
  17              		.global	MX_GPIO_Init
  18              		.syntax unified
  19              		.thumb
  20              		.thumb_func
  21              		.fpu softvfp
  23              	MX_GPIO_Init:
  24              	.LFB65:
  25              		.file 1 "Src/gpio.c"
   1:Src/gpio.c    **** /**
   2:Src/gpio.c    ****   ******************************************************************************
   3:Src/gpio.c    ****   * File Name          : gpio.c
   4:Src/gpio.c    ****   * Description        : This file provides code for the configuration
   5:Src/gpio.c    ****   *                      of all used GPIO pins.
   6:Src/gpio.c    ****   ******************************************************************************
   7:Src/gpio.c    ****   * @attention
   8:Src/gpio.c    ****   *
   9:Src/gpio.c    ****   * <h2><center>&copy; Copyright (c) 2020 STMicroelectronics.
  10:Src/gpio.c    ****   * All rights reserved.</center></h2>
  11:Src/gpio.c    ****   *
  12:Src/gpio.c    ****   * This software component is licensed by ST under BSD 3-Clause license,
  13:Src/gpio.c    ****   * the "License"; You may not use this file except in compliance with the
  14:Src/gpio.c    ****   * License. You may obtain a copy of the License at:
  15:Src/gpio.c    ****   *                        opensource.org/licenses/BSD-3-Clause
  16:Src/gpio.c    ****   *
  17:Src/gpio.c    ****   ******************************************************************************
  18:Src/gpio.c    ****   */
  19:Src/gpio.c    **** 
  20:Src/gpio.c    **** /* Includes ------------------------------------------------------------------*/
  21:Src/gpio.c    **** #include "gpio.h"
  22:Src/gpio.c    **** /* USER CODE BEGIN 0 */
  23:Src/gpio.c    **** 
  24:Src/gpio.c    **** /* USER CODE END 0 */
  25:Src/gpio.c    **** 
  26:Src/gpio.c    **** /*----------------------------------------------------------------------------*/
  27:Src/gpio.c    **** /* Configure GPIO                                                             */
  28:Src/gpio.c    **** /*----------------------------------------------------------------------------*/
  29:Src/gpio.c    **** /* USER CODE BEGIN 1 */
  30:Src/gpio.c    **** 
  31:Src/gpio.c    **** /* USER CODE END 1 */
  32:Src/gpio.c    **** 
  33:Src/gpio.c    **** /** Configure pins as 
ARM GAS  C:\Users\27154\AppData\Local\Temp\cc1anLre.s 			page 2


  34:Src/gpio.c    ****         * Analog 
  35:Src/gpio.c    ****         * Input 
  36:Src/gpio.c    ****         * Output
  37:Src/gpio.c    ****         * EVENT_OUT
  38:Src/gpio.c    ****         * EXTI
  39:Src/gpio.c    **** */
  40:Src/gpio.c    **** void MX_GPIO_Init(void)
  41:Src/gpio.c    **** {
  26              		.loc 1 41 0
  27              		.cfi_startproc
  28              		@ args = 0, pretend = 0, frame = 32
  29              		@ frame_needed = 0, uses_anonymous_args = 0
  30 0000 10B5     		push	{r4, lr}
  31              	.LCFI0:
  32              		.cfi_def_cfa_offset 8
  33              		.cfi_offset 4, -8
  34              		.cfi_offset 14, -4
  35 0002 88B0     		sub	sp, sp, #32
  36              	.LCFI1:
  37              		.cfi_def_cfa_offset 40
  42:Src/gpio.c    **** 
  43:Src/gpio.c    ****   GPIO_InitTypeDef GPIO_InitStruct = {0};
  38              		.loc 1 43 0
  39 0004 0022     		movs	r2, #0
  40 0006 0492     		str	r2, [sp, #16]
  41 0008 0592     		str	r2, [sp, #20]
  42 000a 0692     		str	r2, [sp, #24]
  43 000c 0792     		str	r2, [sp, #28]
  44              	.LBB2:
  44:Src/gpio.c    **** 
  45:Src/gpio.c    ****   /* GPIO Ports Clock Enable */
  46:Src/gpio.c    ****   __HAL_RCC_GPIOC_CLK_ENABLE();
  45              		.loc 1 46 0
  46 000e 184B     		ldr	r3, .L3
  47 0010 9969     		ldr	r1, [r3, #24]
  48 0012 41F01001 		orr	r1, r1, #16
  49 0016 9961     		str	r1, [r3, #24]
  50 0018 9969     		ldr	r1, [r3, #24]
  51 001a 01F01001 		and	r1, r1, #16
  52 001e 0191     		str	r1, [sp, #4]
  53 0020 0199     		ldr	r1, [sp, #4]
  54              	.LBE2:
  55              	.LBB3:
  47:Src/gpio.c    ****   __HAL_RCC_GPIOD_CLK_ENABLE();
  56              		.loc 1 47 0
  57 0022 9969     		ldr	r1, [r3, #24]
  58 0024 41F02001 		orr	r1, r1, #32
  59 0028 9961     		str	r1, [r3, #24]
  60 002a 9969     		ldr	r1, [r3, #24]
  61 002c 01F02001 		and	r1, r1, #32
  62 0030 0291     		str	r1, [sp, #8]
  63 0032 0299     		ldr	r1, [sp, #8]
  64              	.LBE3:
  65              	.LBB4:
  48:Src/gpio.c    ****   __HAL_RCC_GPIOA_CLK_ENABLE();
  66              		.loc 1 48 0
  67 0034 9969     		ldr	r1, [r3, #24]
ARM GAS  C:\Users\27154\AppData\Local\Temp\cc1anLre.s 			page 3


  68 0036 41F00401 		orr	r1, r1, #4
  69 003a 9961     		str	r1, [r3, #24]
  70 003c 9B69     		ldr	r3, [r3, #24]
  71 003e 03F00403 		and	r3, r3, #4
  72 0042 0393     		str	r3, [sp, #12]
  73 0044 039B     		ldr	r3, [sp, #12]
  74              	.LBE4:
  49:Src/gpio.c    **** 
  50:Src/gpio.c    ****   /*Configure GPIO pin Output Level */
  51:Src/gpio.c    ****   HAL_GPIO_WritePin(GPIOC, GPIO_PIN_13, GPIO_PIN_RESET);
  75              		.loc 1 51 0
  76 0046 0B4C     		ldr	r4, .L3+4
  77 0048 4FF40051 		mov	r1, #8192
  78 004c 2046     		mov	r0, r4
  79 004e FFF7FEFF 		bl	HAL_GPIO_WritePin
  80              	.LVL0:
  52:Src/gpio.c    **** 
  53:Src/gpio.c    ****   /*Configure GPIO pin : PC13 */
  54:Src/gpio.c    ****   GPIO_InitStruct.Pin = GPIO_PIN_13;
  81              		.loc 1 54 0
  82 0052 4FF40053 		mov	r3, #8192
  83 0056 0493     		str	r3, [sp, #16]
  55:Src/gpio.c    ****   GPIO_InitStruct.Mode = GPIO_MODE_OUTPUT_PP;
  84              		.loc 1 55 0
  85 0058 0123     		movs	r3, #1
  86 005a 0593     		str	r3, [sp, #20]
  56:Src/gpio.c    ****   GPIO_InitStruct.Pull = GPIO_PULLUP;
  87              		.loc 1 56 0
  88 005c 0693     		str	r3, [sp, #24]
  57:Src/gpio.c    ****   GPIO_InitStruct.Speed = GPIO_SPEED_FREQ_LOW;
  89              		.loc 1 57 0
  90 005e 0223     		movs	r3, #2
  91 0060 0793     		str	r3, [sp, #28]
  58:Src/gpio.c    ****   HAL_GPIO_Init(GPIOC, &GPIO_InitStruct);
  92              		.loc 1 58 0
  93 0062 04A9     		add	r1, sp, #16
  94 0064 2046     		mov	r0, r4
  95 0066 FFF7FEFF 		bl	HAL_GPIO_Init
  96              	.LVL1:
  59:Src/gpio.c    **** 
  60:Src/gpio.c    **** }
  97              		.loc 1 60 0
  98 006a 08B0     		add	sp, sp, #32
  99              	.LCFI2:
 100              		.cfi_def_cfa_offset 8
 101              		@ sp needed
 102 006c 10BD     		pop	{r4, pc}
 103              	.L4:
 104 006e 00BF     		.align	2
 105              	.L3:
 106 0070 00100240 		.word	1073876992
 107 0074 00100140 		.word	1073811456
 108              		.cfi_endproc
 109              	.LFE65:
 111              		.text
 112              	.Letext0:
 113              		.file 2 "c:\\users\\27154\\.platformio\\packages\\toolchain-gccarmnoneeabi\\arm-none-eabi\\include
ARM GAS  C:\Users\27154\AppData\Local\Temp\cc1anLre.s 			page 4


 114              		.file 3 "c:\\users\\27154\\.platformio\\packages\\toolchain-gccarmnoneeabi\\arm-none-eabi\\include
 115              		.file 4 "Drivers/CMSIS/Include/core_cm3.h"
 116              		.file 5 "Drivers/CMSIS/Device/ST/STM32F1xx/Include/system_stm32f1xx.h"
 117              		.file 6 "Drivers/CMSIS/Device/ST/STM32F1xx/Include/stm32f103xb.h"
 118              		.file 7 "Drivers/STM32F1xx_HAL_Driver/Inc/stm32f1xx_hal_gpio.h"
 119              		.file 8 "Drivers/STM32F1xx_HAL_Driver/Inc/stm32f1xx_hal.h"
ARM GAS  C:\Users\27154\AppData\Local\Temp\cc1anLre.s 			page 5

